target datalayout = "e-m:e-p270:32:32-p271:32:32-p272:64:64-i64:64-i128:128-f80:128-n8:16:32:64-S128"
target triple = "x86_64-pc-linux-gnu"

%struct.hwloc_infos_s = type { ptr, i32, i32 }
%struct.hwloc_info_s = type { ptr, ptr }

; Function Attrs: nounwind uwtable
define internal i32 @hwloc__realloc_infos(ptr noundef %0, i32 noundef %1) #0 {
  %3 = alloca i32, align 4
  %4 = alloca ptr, align 8
  %5 = alloca i32, align 4
  %6 = alloca ptr, align 8
  %7 = alloca i32, align 4
  %8 = alloca i32, align 4
  store ptr %0, ptr %4, align 8, !tbaa !55
  store i32 %1, ptr %5, align 4, !tbaa !33
  call void @llvm.lifetime.start.p0(i64 8, ptr %6) #14
  call void @llvm.lifetime.start.p0(i64 4, ptr %7) #14
  %9 = load ptr, ptr %4, align 8, !tbaa !55
  %10 = getelementptr inbounds nuw %struct.hwloc_infos_s, ptr %9, i32 0, i32 2
  %11 = load i32, ptr %10, align 4, !tbaa !64
  %12 = load ptr, ptr %4, align 8, !tbaa !55
  %13 = getelementptr inbounds nuw %struct.hwloc_infos_s, ptr %12, i32 0, i32 1
  %14 = load i32, ptr %13, align 8, !tbaa !57
  %15 = load i32, ptr %5, align 4, !tbaa !33
  %16 = add i32 %14, %15
  %17 = icmp ugt i32 %11, %16
  br i1 %17, label %18, label %19

18:                                               ; preds = %2
  store i32 0, ptr %3, align 4
  store i32 1, ptr %8, align 4
  br label %44

19:                                               ; preds = %2
  %20 = load ptr, ptr %4, align 8, !tbaa !55
  %21 = getelementptr inbounds nuw %struct.hwloc_infos_s, ptr %20, i32 0, i32 1
  %22 = load i32, ptr %21, align 8, !tbaa !57
  %23 = load i32, ptr %5, align 4, !tbaa !33
  %24 = add i32 %22, %23
  %25 = add i32 %24, 7
  %26 = and i32 %25, -8
  store i32 %26, ptr %7, align 4, !tbaa !33
  %27 = load ptr, ptr %4, align 8, !tbaa !55
  %28 = getelementptr inbounds nuw %struct.hwloc_infos_s, ptr %27, i32 0, i32 0
  %29 = load ptr, ptr %28, align 8, !tbaa !58
  %30 = load i32, ptr %7, align 4, !tbaa !33
  %31 = zext i32 %30 to i64
  %32 = mul i64 %31, 16
  %33 = call ptr @realloc(ptr noundef %29, i64 noundef %32) #17
  store ptr %33, ptr %6, align 8, !tbaa !63
  %34 = load ptr, ptr %6, align 8, !tbaa !63
  %35 = icmp ne ptr %34, null
  br i1 %35, label %37, label %36

36:                                               ; preds = %19
  store i32 -1, ptr %3, align 4
  store i32 1, ptr %8, align 4
  br label %44

37:                                               ; preds = %19
  %38 = load ptr, ptr %6, align 8, !tbaa !63
  %39 = load ptr, ptr %4, align 8, !tbaa !55
  %40 = getelementptr inbounds nuw %struct.hwloc_infos_s, ptr %39, i32 0, i32 0
  store ptr %38, ptr %40, align 8, !tbaa !58
  %41 = load i32, ptr %7, align 4, !tbaa !33
  %42 = load ptr, ptr %4, align 8, !tbaa !55
  %43 = getelementptr inbounds nuw %struct.hwloc_infos_s, ptr %42, i32 0, i32 2
  store i32 %41, ptr %43, align 4, !tbaa !64
  store i32 0, ptr %3, align 4
  store i32 1, ptr %8, align 4
  br label %44

44:                                               ; preds = %37, %36, %18
  call void @llvm.lifetime.end.p0(i64 4, ptr %7) #14
  call void @llvm.lifetime.end.p0(i64 8, ptr %6) #14
  %45 = load i32, ptr %3, align 4
  ret i32 %45
}

; Function Attrs: nounwind uwtable
define hidden i32 @hwloc__add_info(ptr noundef %0, ptr noundef %1, ptr noundef %2) #0 {
  %4 = alloca i32, align 4
  %5 = alloca ptr, align 8
  %6 = alloca ptr, align 8
  %7 = alloca ptr, align 8
  %8 = alloca i32, align 4
  %9 = alloca ptr, align 8
  %10 = alloca i32, align 4
  store ptr %0, ptr %5, align 8, !tbaa !55
  store ptr %1, ptr %6, align 8, !tbaa !34
  store ptr %2, ptr %7, align 8, !tbaa !34
  call void @llvm.lifetime.start.p0(i64 4, ptr %8) #14
  call void @llvm.lifetime.start.p0(i64 8, ptr %9) #14
  %11 = load ptr, ptr %6, align 8, !tbaa !34
  %12 = icmp ne ptr %11, null
  br i1 %12, label %13, label %16

13:                                               ; preds = %3
  %14 = load ptr, ptr %7, align 8, !tbaa !34
  %15 = icmp ne ptr %14, null
  br i1 %15, label %18, label %16

16:                                               ; preds = %13, %3
  %17 = call ptr @__errno_location() #16
  store i32 22, ptr %17, align 4, !tbaa !33
  store i32 -1, ptr %4, align 4
  store i32 1, ptr %10, align 4
  br label %74

18:                                               ; preds = %13
  %19 = load ptr, ptr %5, align 8, !tbaa !55
  %20 = call i32 @hwloc__realloc_infos(ptr noundef %19, i32 noundef 1)
  %21 = icmp slt i32 %20, 0
  br i1 %21, label %22, label %23

22:                                               ; preds = %18
  store i32 -1, ptr %4, align 4
  store i32 1, ptr %10, align 4
  br label %74

23:                                               ; preds = %18
  %24 = load ptr, ptr %5, align 8, !tbaa !55
  %25 = getelementptr inbounds nuw %struct.hwloc_infos_s, ptr %24, i32 0, i32 1
  %26 = load i32, ptr %25, align 8, !tbaa !57
  store i32 %26, ptr %8, align 4, !tbaa !33
  %27 = load ptr, ptr %5, align 8, !tbaa !55
  %28 = getelementptr inbounds nuw %struct.hwloc_infos_s, ptr %27, i32 0, i32 0
  %29 = load ptr, ptr %28, align 8, !tbaa !58
  store ptr %29, ptr %9, align 8, !tbaa !63
  %30 = load ptr, ptr %6, align 8, !tbaa !34
  %31 = call noalias ptr @strdup(ptr noundef %30) #14
  %32 = load ptr, ptr %9, align 8, !tbaa !63
  %33 = load i32, ptr %8, align 4, !tbaa !33
  %34 = zext i32 %33 to i64
  %35 = getelementptr inbounds nuw %struct.hwloc_info_s, ptr %32, i64 %34
  %36 = getelementptr inbounds nuw %struct.hwloc_info_s, ptr %35, i32 0, i32 0
  store ptr %31, ptr %36, align 8, !tbaa !59
  %37 = load ptr, ptr %9, align 8, !tbaa !63
  %38 = load i32, ptr %8, align 4, !tbaa !33
  %39 = zext i32 %38 to i64
  %40 = getelementptr inbounds nuw %struct.hwloc_info_s, ptr %37, i64 %39
  %41 = getelementptr inbounds nuw %struct.hwloc_info_s, ptr %40, i32 0, i32 0
  %42 = load ptr, ptr %41, align 8, !tbaa !59
  %43 = icmp ne ptr %42, null
  br i1 %43, label %45, label %44

44:                                               ; preds = %23
  br label %73

45:                                               ; preds = %23
  %46 = load ptr, ptr %7, align 8, !tbaa !34
  %47 = call noalias ptr @strdup(ptr noundef %46) #14
  %48 = load ptr, ptr %9, align 8, !tbaa !63
  %49 = load i32, ptr %8, align 4, !tbaa !33
  %50 = zext i32 %49 to i64
  %51 = getelementptr inbounds nuw %struct.hwloc_info_s, ptr %48, i64 %50
  %52 = getelementptr inbounds nuw %struct.hwloc_info_s, ptr %51, i32 0, i32 1
  store ptr %47, ptr %52, align 8, !tbaa !61
  %53 = load ptr, ptr %9, align 8, !tbaa !63
  %54 = load i32, ptr %8, align 4, !tbaa !33
  %55 = zext i32 %54 to i64
  %56 = getelementptr inbounds nuw %struct.hwloc_info_s, ptr %53, i64 %55
  %57 = getelementptr inbounds nuw %struct.hwloc_info_s, ptr %56, i32 0, i32 1
  %58 = load ptr, ptr %57, align 8, !tbaa !61
  %59 = icmp ne ptr %58, null
  br i1 %59, label %61, label %60

60:                                               ; preds = %45
  br label %66

61:                                               ; preds = %45
  %62 = load i32, ptr %8, align 4, !tbaa !33
  %63 = add i32 %62, 1
  %64 = load ptr, ptr %5, align 8, !tbaa !55
  %65 = getelementptr inbounds nuw %struct.hwloc_infos_s, ptr %64, i32 0, i32 1
  store i32 %63, ptr %65, align 8, !tbaa !57
  store i32 1, ptr %4, align 4
  store i32 1, ptr %10, align 4
  br label %74

66:                                               ; preds = %60
  %67 = load ptr, ptr %9, align 8, !tbaa !63
  %68 = load i32, ptr %8, align 4, !tbaa !33
  %69 = zext i32 %68 to i64
  %70 = getelementptr inbounds nuw %struct.hwloc_info_s, ptr %67, i64 %69
  %71 = getelementptr inbounds nuw %struct.hwloc_info_s, ptr %70, i32 0, i32 0
  %72 = load ptr, ptr %71, align 8, !tbaa !59
  call void @free(ptr noundef %72) #14
  br label %73

73:                                               ; preds = %66, %44
  store i32 -1, ptr %4, align 4
  store i32 1, ptr %10, align 4
  br label %74

74:                                               ; preds = %73, %61, %22, %16
  call void @llvm.lifetime.end.p0(i64 8, ptr %9) #14
  call void @llvm.lifetime.end.p0(i64 4, ptr %8) #14
  %75 = load i32, ptr %4, align 4
  ret i32 %75
}

; Function Attrs: nounwind uwtable
define hidden i32 @hwloc__replace_infos(ptr noundef %0, ptr noundef %1, ptr noundef %2) #0 {
  %4 = alloca i32, align 4
  %5 = alloca ptr, align 8
  %6 = alloca ptr, align 8
  %7 = alloca ptr, align 8
  %8 = alloca ptr, align 8
  %9 = alloca i32, align 4
  %10 = alloca i32, align 4
  %11 = alloca i32, align 4
  %12 = alloca i32, align 4
  %13 = alloca ptr, align 8
  store ptr %0, ptr %5, align 8, !tbaa !55
  store ptr %1, ptr %6, align 8, !tbaa !34
  store ptr %2, ptr %7, align 8, !tbaa !34
  call void @llvm.lifetime.start.p0(i64 8, ptr %8) #14
  %14 = load ptr, ptr %5, align 8, !tbaa !55
  %15 = getelementptr inbounds nuw %struct.hwloc_infos_s, ptr %14, i32 0, i32 0
  %16 = load ptr, ptr %15, align 8, !tbaa !58
  store ptr %16, ptr %8, align 8, !tbaa !63
  call void @llvm.lifetime.start.p0(i64 4, ptr %9) #14
  %17 = load ptr, ptr %5, align 8, !tbaa !55
  %18 = getelementptr inbounds nuw %struct.hwloc_infos_s, ptr %17, i32 0, i32 1
  %19 = load i32, ptr %18, align 8, !tbaa !57
  store i32 %19, ptr %9, align 4, !tbaa !33
  call void @llvm.lifetime.start.p0(i64 4, ptr %10) #14
  call void @llvm.lifetime.start.p0(i64 4, ptr %11) #14
  store i32 0, ptr %11, align 4, !tbaa !33
  %20 = load ptr, ptr %6, align 8, !tbaa !34
  %21 = icmp ne ptr %20, null
  br i1 %21, label %22, label %25

22:                                               ; preds = %3
  %23 = load ptr, ptr %7, align 8, !tbaa !34
  %24 = icmp ne ptr %23, null
  br i1 %24, label %27, label %25

25:                                               ; preds = %22, %3
  %26 = call ptr @__errno_location() #16
  store i32 22, ptr %26, align 4, !tbaa !33
  store i32 -1, ptr %4, align 4
  store i32 1, ptr %12, align 4
  br label %141

27:                                               ; preds = %22
  store i32 0, ptr %10, align 4, !tbaa !33
  br label %28

28:                                               ; preds = %117, %27
  %29 = load i32, ptr %10, align 4, !tbaa !33
  %30 = load i32, ptr %9, align 4, !tbaa !33
  %31 = icmp ult i32 %29, %30
  br i1 %31, label %32, label %120

32:                                               ; preds = %28
  %33 = load ptr, ptr %8, align 8, !tbaa !63
  %34 = load i32, ptr %10, align 4, !tbaa !33
  %35 = zext i32 %34 to i64
  %36 = getelementptr inbounds nuw %struct.hwloc_info_s, ptr %33, i64 %35
  %37 = getelementptr inbounds nuw %struct.hwloc_info_s, ptr %36, i32 0, i32 0
  %38 = load ptr, ptr %37, align 8, !tbaa !59
  %39 = load ptr, ptr %6, align 8, !tbaa !34
  %40 = call i32 @strcmp(ptr noundef %38, ptr noundef %39) #15
  %41 = icmp ne i32 %40, 0
  br i1 %41, label %83, label %42

42:                                               ; preds = %32
  %43 = load i32, ptr %11, align 4, !tbaa !33
  %44 = icmp ne i32 %43, 0
  br i1 %44, label %67, label %45

45:                                               ; preds = %42
  call void @llvm.lifetime.start.p0(i64 8, ptr %13) #14
  %46 = load ptr, ptr %7, align 8, !tbaa !34
  %47 = call noalias ptr @strdup(ptr noundef %46) #14
  store ptr %47, ptr %13, align 8, !tbaa !34
  %48 = load ptr, ptr %13, align 8, !tbaa !34
  %49 = icmp ne ptr %48, null
  br i1 %49, label %51, label %50

50:                                               ; preds = %45
  store i32 -1, ptr %4, align 4
  store i32 1, ptr %12, align 4
  br label %64

51:                                               ; preds = %45
  %52 = load ptr, ptr %8, align 8, !tbaa !63
  %53 = load i32, ptr %10, align 4, !tbaa !33
  %54 = zext i32 %53 to i64
  %55 = getelementptr inbounds nuw %struct.hwloc_info_s, ptr %52, i64 %54
  %56 = getelementptr inbounds nuw %struct.hwloc_info_s, ptr %55, i32 0, i32 1
  %57 = load ptr, ptr %56, align 8, !tbaa !61
  call void @free(ptr noundef %57) #14
  %58 = load ptr, ptr %13, align 8, !tbaa !34
  %59 = load ptr, ptr %8, align 8, !tbaa !63
  %60 = load i32, ptr %10, align 4, !tbaa !33
  %61 = zext i32 %60 to i64
  %62 = getelementptr inbounds nuw %struct.hwloc_info_s, ptr %59, i64 %61
  %63 = getelementptr inbounds nuw %struct.hwloc_info_s, ptr %62, i32 0, i32 1
  store ptr %58, ptr %63, align 8, !tbaa !61
  store i32 0, ptr %12, align 4
  br label %64

64:                                               ; preds = %51, %50
  call void @llvm.lifetime.end.p0(i64 8, ptr %13) #14
  %65 = load i32, ptr %12, align 4
  switch i32 %65, label %141 [
    i32 0, label %66
  ]

66:                                               ; preds = %64
  br label %80

67:                                               ; preds = %42
  %68 = load ptr, ptr %8, align 8, !tbaa !63
  %69 = load i32, ptr %10, align 4, !tbaa !33
  %70 = zext i32 %69 to i64
  %71 = getelementptr inbounds nuw %struct.hwloc_info_s, ptr %68, i64 %70
  %72 = getelementptr inbounds nuw %struct.hwloc_info_s, ptr %71, i32 0, i32 0
  %73 = load ptr, ptr %72, align 8, !tbaa !59
  call void @free(ptr noundef %73) #14
  %74 = load ptr, ptr %8, align 8, !tbaa !63
  %75 = load i32, ptr %10, align 4, !tbaa !33
  %76 = zext i32 %75 to i64
  %77 = getelementptr inbounds nuw %struct.hwloc_info_s, ptr %74, i64 %76
  %78 = getelementptr inbounds nuw %struct.hwloc_info_s, ptr %77, i32 0, i32 1
  %79 = load ptr, ptr %78, align 8, !tbaa !61
  call void @free(ptr noundef %79) #14
  br label %80

80:                                               ; preds = %67, %66
  %81 = load i32, ptr %11, align 4, !tbaa !33
  %82 = add nsw i32 %81, 1
  store i32 %82, ptr %11, align 4, !tbaa !33
  br label %116

83:                                               ; preds = %32
  %84 = load i32, ptr %11, align 4, !tbaa !33
  %85 = icmp sgt i32 %84, 1
  br i1 %85, label %86, label %115

86:                                               ; preds = %83
  %87 = load ptr, ptr %8, align 8, !tbaa !63
  %88 = load i32, ptr %10, align 4, !tbaa !33
  %89 = zext i32 %88 to i64
  %90 = getelementptr inbounds nuw %struct.hwloc_info_s, ptr %87, i64 %89
  %91 = getelementptr inbounds nuw %struct.hwloc_info_s, ptr %90, i32 0, i32 0
  %92 = load ptr, ptr %91, align 8, !tbaa !59
  %93 = load ptr, ptr %8, align 8, !tbaa !63
  %94 = load i32, ptr %10, align 4, !tbaa !33
  %95 = load i32, ptr %11, align 4, !tbaa !33
  %96 = sub nsw i32 %95, 1
  %97 = sub i32 %94, %96
  %98 = zext i32 %97 to i64
  %99 = getelementptr inbounds nuw %struct.hwloc_info_s, ptr %93, i64 %98
  %100 = getelementptr inbounds nuw %struct.hwloc_info_s, ptr %99, i32 0, i32 0
  store ptr %92, ptr %100, align 8, !tbaa !59
  %101 = load ptr, ptr %8, align 8, !tbaa !63
  %102 = load i32, ptr %10, align 4, !tbaa !33
  %103 = zext i32 %102 to i64
  %104 = getelementptr inbounds nuw %struct.hwloc_info_s, ptr %101, i64 %103
  %105 = getelementptr inbounds nuw %struct.hwloc_info_s, ptr %104, i32 0, i32 1
  %106 = load ptr, ptr %105, align 8, !tbaa !61
  %107 = load ptr, ptr %8, align 8, !tbaa !63
  %108 = load i32, ptr %10, align 4, !tbaa !33
  %109 = load i32, ptr %11, align 4, !tbaa !33
  %110 = sub nsw i32 %109, 1
  %111 = sub i32 %108, %110
  %112 = zext i32 %111 to i64
  %113 = getelementptr inbounds nuw %struct.hwloc_info_s, ptr %107, i64 %112
  %114 = getelementptr inbounds nuw %struct.hwloc_info_s, ptr %113, i32 0, i32 1
  store ptr %106, ptr %114, align 8, !tbaa !61
  br label %115

115:                                              ; preds = %86, %83
  br label %116

116:                                              ; preds = %115, %80
  br label %117

117:                                              ; preds = %116
  %118 = load i32, ptr %10, align 4, !tbaa !33
  %119 = add i32 %118, 1
  store i32 %119, ptr %10, align 4, !tbaa !33
  br label %28, !llvm.loop !65

120:                                              ; preds = %28
  %121 = load i32, ptr %11, align 4, !tbaa !33
  %122 = icmp ne i32 %121, 0
  br i1 %122, label %123, label %136

123:                                              ; preds = %120
  %124 = load i32, ptr %11, align 4, !tbaa !33
  %125 = icmp sgt i32 %124, 1
  br i1 %125, label %126, label %133

126:                                              ; preds = %123
  %127 = load i32, ptr %11, align 4, !tbaa !33
  %128 = sub nsw i32 %127, 1
  %129 = load ptr, ptr %5, align 8, !tbaa !55
  %130 = getelementptr inbounds nuw %struct.hwloc_infos_s, ptr %129, i32 0, i32 1
  %131 = load i32, ptr %130, align 8, !tbaa !57
  %132 = sub i32 %131, %128
  store i32 %132, ptr %130, align 8, !tbaa !57
  br label %133

133:                                              ; preds = %126, %123
  %134 = load i32, ptr %11, align 4, !tbaa !33
  %135 = add nsw i32 1, %134
  store i32 %135, ptr %4, align 4
  store i32 1, ptr %12, align 4
  br label %141

136:                                              ; preds = %120
  %137 = load ptr, ptr %5, align 8, !tbaa !55
  %138 = load ptr, ptr %6, align 8, !tbaa !34
  %139 = load ptr, ptr %7, align 8, !tbaa !34
  %140 = call i32 @hwloc__add_info(ptr noundef %137, ptr noundef %138, ptr noundef %139)
  store i32 %140, ptr %4, align 4
  store i32 1, ptr %12, align 4
  br label %141

141:                                              ; preds = %136, %133, %64, %25
  call void @llvm.lifetime.end.p0(i64 4, ptr %11) #14
  call void @llvm.lifetime.end.p0(i64 4, ptr %10) #14
  call void @llvm.lifetime.end.p0(i64 4, ptr %9) #14
  call void @llvm.lifetime.end.p0(i64 8, ptr %8) #14
  %142 = load i32, ptr %4, align 4
  ret i32 %142
}