; Function Attrs: nounwind uwtable
define hidden range(i32 -2147483647, -2147483648) i32 @hwloc__replace_infos(ptr noundef captures(none) %0, ptr noundef readonly captures(address_is_null) %1, ptr noundef readonly captures(address_is_null) %2) local_unnamed_addr #5 {
  %4 = load ptr, ptr %0, align 8, !tbaa !69
  %5 = getelementptr inbounds nuw i8, ptr %0, i64 8
  %6 = load i32, ptr %5, align 8, !tbaa !68
  %7 = icmp ne ptr %1, null
  %8 = icmp ne ptr %2, null
  %or.cond = and i1 %7, %8
  br i1 %or.cond, label %.preheader, label %9

.preheader:                                       ; preds = %3
  %.not61 = icmp eq i32 %6, 0
  br i1 %.not61, label %._crit_edge.thread, label %.lr.ph.preheader

.lr.ph.preheader:                                 ; preds = %.preheader
  %wide.trip.count = zext i32 %6 to i64
  br label %.lr.ph

9:                                                ; preds = %3
  %10 = tail call ptr @__errno_location() #37
  store i32 22, ptr %10, align 4, !tbaa !31
  br label %.critedge

.lr.ph:                                           ; preds = %.lr.ph.preheader, %36
  %indvars.iv = phi i64 [ 0, %.lr.ph.preheader ], [ %indvars.iv.next, %36 ]
  %.045.neg59 = phi i32 [ 0, %.lr.ph.preheader ], [ %.045.neg, %36 ]
  %.04558 = phi i32 [ 0, %.lr.ph.preheader ], [ %.146, %36 ]
  %11 = getelementptr inbounds nuw %struct.hwloc_info_s, ptr %4, i64 %indvars.iv
  %12 = load ptr, ptr %11, align 8, !tbaa !70
  %13 = tail call i32 @strcmp(ptr noundef nonnull dereferenceable(1) %12, ptr noundef nonnull dereferenceable(1) %1) #36
  %.not51 = icmp eq i32 %13, 0
  br i1 %.not51, label %14, label %25

14:                                               ; preds = %.lr.ph
  %.not52 = icmp eq i32 %.04558, 0
  br i1 %.not52, label %15, label %20

15:                                               ; preds = %14
  %16 = tail call noalias ptr @strdup(ptr noundef nonnull %2) #34
  %.not53.not = icmp eq ptr %16, null
  br i1 %.not53.not, label %.critedge, label %17

17:                                               ; preds = %15
  %18 = getelementptr inbounds nuw i8, ptr %11, i64 8
  %19 = load ptr, ptr %18, align 8, !tbaa !72
  tail call void @free(ptr noundef %19) #34
  store ptr %16, ptr %18, align 8, !tbaa !72
  br label %23

20:                                               ; preds = %14
  tail call void @free(ptr noundef nonnull %12) #34
  %21 = getelementptr inbounds nuw i8, ptr %11, i64 8
  %22 = load ptr, ptr %21, align 8, !tbaa !72
  tail call void @free(ptr noundef %22) #34
  br label %23

23:                                               ; preds = %17, %20
  %24 = add nsw i32 %.04558, 1
  br label %36

25:                                               ; preds = %.lr.ph
  %26 = icmp sgt i32 %.04558, 1
  br i1 %26, label %27, label %36

27:                                               ; preds = %25
  %28 = trunc i64 %indvars.iv to i32
  %29 = add i32 %28, 1
  %30 = add i32 %29, %.045.neg59
  %31 = zext i32 %30 to i64
  %32 = getelementptr inbounds nuw %struct.hwloc_info_s, ptr %4, i64 %31
  store ptr %12, ptr %32, align 8, !tbaa !70
  %33 = getelementptr inbounds nuw i8, ptr %11, i64 8
  %34 = load ptr, ptr %33, align 8, !tbaa !72
  %35 = getelementptr inbounds nuw i8, ptr %32, i64 8
  store ptr %34, ptr %35, align 8, !tbaa !72
  br label %36

36:                                               ; preds = %23, %27, %25
  %.146 = phi i32 [ %.04558, %27 ], [ %.04558, %25 ], [ %24, %23 ]
  %indvars.iv.next = add nuw nsw i64 %indvars.iv, 1
  %.045.neg = sub i32 0, %.146
  %exitcond.not = icmp eq i64 %indvars.iv.next, %wide.trip.count
  br i1 %exitcond.not, label %._crit_edge, label %.lr.ph, !llvm.loop !75

._crit_edge:                                      ; preds = %36
  %.not = icmp eq i32 %.146, 0
  br i1 %.not, label %._crit_edge.thread, label %37

37:                                               ; preds = %._crit_edge
  %38 = icmp sgt i32 %.146, 1
  br i1 %38, label %39, label %42

39:                                               ; preds = %37
  %40 = load i32, ptr %5, align 8, !tbaa !68
  %reass.sub = sub i32 %40, %.146
  %41 = add i32 %reass.sub, 1
  store i32 %41, ptr %5, align 8, !tbaa !68
  br label %42

42:                                               ; preds = %39, %37
  %43 = add nsw i32 %.146, 1
  br label %.critedge

._crit_edge.thread:                               ; preds = %.preheader, %._crit_edge
  %44 = getelementptr inbounds nuw i8, ptr %0, i64 12
  %45 = load i32, ptr %44, align 4, !tbaa !74
  %46 = load i32, ptr %5, align 8, !tbaa !68
  %47 = add i32 %46, 1
  %48 = icmp ugt i32 %45, %47
  %.pre24.i = load ptr, ptr %0, align 8, !tbaa !69
  br i1 %48, label %56, label %49

49:                                               ; preds = %._crit_edge.thread
  %50 = and i32 %46, -8
  %51 = add i32 %50, 8
  %52 = zext i32 %51 to i64
  %53 = shl nuw nsw i64 %52, 4
  %54 = tail call ptr @realloc(ptr noundef %.pre24.i, i64 noundef %53) #38
  %.not.i.i = icmp eq ptr %54, null
  br i1 %.not.i.i, label %.critedge, label %55

55:                                               ; preds = %49
  store ptr %54, ptr %0, align 8, !tbaa !69
  store i32 %51, ptr %44, align 4, !tbaa !74
  %.pre.i = load i32, ptr %5, align 8, !tbaa !68
  br label %56

56:                                               ; preds = %55, %._crit_edge.thread
  %57 = phi ptr [ %54, %55 ], [ %.pre24.i, %._crit_edge.thread ]
  %58 = phi i32 [ %.pre.i, %55 ], [ %46, %._crit_edge.thread ]
  %59 = tail call noalias ptr @strdup(ptr noundef nonnull readonly %1) #34
  %60 = zext i32 %58 to i64
  %61 = getelementptr inbounds nuw %struct.hwloc_info_s, ptr %57, i64 %60
  store ptr %59, ptr %61, align 8, !tbaa !70
  %.not.i = icmp eq ptr %59, null
  br i1 %.not.i, label %.critedge, label %62

62:                                               ; preds = %56
  %63 = tail call noalias ptr @strdup(ptr noundef nonnull readonly %2) #34
  %64 = getelementptr inbounds nuw i8, ptr %61, i64 8
  store ptr %63, ptr %64, align 8, !tbaa !72
  %.not22.i = icmp eq ptr %63, null
  br i1 %.not22.i, label %67, label %65

65:                                               ; preds = %62
  %66 = add i32 %58, 1
  store i32 %66, ptr %5, align 8, !tbaa !68
  br label %.critedge

67:                                               ; preds = %62
  tail call void @free(ptr noundef nonnull %59) #34
  br label %.critedge

.critedge:                                        ; preds = %15, %67, %65, %56, %49, %42, %9
  %.0 = phi i32 [ %43, %42 ], [ -1, %9 ], [ 1, %65 ], [ -1, %56 ], [ -1, %67 ], [ -1, %49 ], [ -1, %15 ]
  ret i32 %.0
}